target datalayout = "e-m:e-p270:32:32-p271:32:32-p272:64:64-i64:64-i128:128-f80:128-n8:16:32:64-S128"
target triple = "x86_64-pc-linux-gnu"

; Function Attrs: nounwind uwtable
define dso_local zeroext i1 @token_is_any_type(i32 noundef %0) #0 {
  %2 = alloca i32, align 4
  store i32 %0, ptr %2, align 4
  %3 = load i32, ptr %2, align 4
  %4 = icmp uge i32 %3, 82
  br i1 %4, label %5, label %8

5:                                                ; preds = %1
  %6 = load i32, ptr %2, align 4
  %7 = icmp ule i32 %6, 104
  br i1 %7, label %17, label %8

8:                                                ; preds = %5, %1
  %9 = load i32, ptr %2, align 4
  %10 = icmp eq i32 %9, 69
  br i1 %10, label %17, label %11

11:                                               ; preds = %8
  %12 = load i32, ptr %2, align 4
  %13 = icmp eq i32 %12, 66
  br i1 %13, label %17, label %14

14:                                               ; preds = %11
  %15 = load i32, ptr %2, align 4
  %16 = icmp eq i32 %15, 180
  br label %17

17:                                               ; preds = %14, %11, %8, %5
  %18 = phi i1 [ true, %11 ], [ true, %8 ], [ true, %5 ], [ %16, %14 ]
  ret i1 %18
}