; Function Attrs: mustprogress nofree norecurse nosync nounwind willreturn memory(none) uwtable
define dso_local noundef zeroext i1 @token_is_any_type(i32 noundef %0) local_unnamed_addr #2 {
  %2 = add i32 %0, -82
  %or.cond = icmp ult i32 %2, 23
  br i1 %or.cond, label %switch.edge, label %switch.early.test

switch.early.test:                                ; preds = %1
  switch i32 %0, label %3 [
    i32 69, label %switch.edge
    i32 66, label %switch.edge
    i32 180, label %switch.edge
  ]

3:                                                ; preds = %switch.early.test
  br label %switch.edge

switch.edge:                                      ; preds = %switch.early.test, %switch.early.test, %switch.early.test, %1, %3
  %4 = phi i1 [ false, %3 ], [ true, %switch.early.test ], [ true, %1 ], [ true, %switch.early.test ], [ true, %switch.early.test ]
  ret i1 %4
}